target datalayout = "e-m:e-p270:32:32-p271:32:32-p272:64:64-i64:64-i128:128-f80:128-n8:16:32:64-S128"
target triple = "x86_64-pc-linux-gnu"

@.str = private unnamed_addr constant [5 x i8] c"pmix\00", align 1

; Function Attrs: nounwind uwtable
define internal i32 @copy(ptr noundef %0, ptr noundef %1, ptr noundef %2) #0 {
  %4 = alloca i32, align 4
  %5 = alloca ptr, align 8
  %6 = alloca ptr, align 8
  %7 = alloca ptr, align 8
  store ptr %0, ptr %5, align 8, !tbaa !8
  store ptr %1, ptr %6, align 8, !tbaa !61
  store ptr %2, ptr %7, align 8, !tbaa !3
  %8 = load ptr, ptr %7, align 8, !tbaa !3
  %9 = call i32 @strncmp(ptr noundef %8, ptr noundef @.str, i64 noundef 4) #13
  %10 = icmp ne i32 0, %9
  br i1 %10, label %11, label %12

11:                                               ; preds = %3
  store i32 -1366, ptr %4, align 4
  br label %20

12:                                               ; preds = %3
  %13 = load ptr, ptr %7, align 8, !tbaa !3
  %14 = call noalias ptr @strdup(ptr noundef %13) #12
  %15 = load ptr, ptr %5, align 8, !tbaa !8
  store ptr %14, ptr %15, align 8, !tbaa !3
  %16 = load ptr, ptr %7, align 8, !tbaa !3
  %17 = call i64 @strlen(ptr noundef %16) #13
  %18 = add i64 %17, 1
  %19 = load ptr, ptr %6, align 8, !tbaa !61
  store i64 %18, ptr %19, align 8, !tbaa !63
  store i32 0, ptr %4, align 4
  br label %20

20:                                               ; preds = %12, %11
  %21 = load i32, ptr %4, align 4
  ret i32 %21
}