; Function Attrs: mustprogress nofree nounwind willreturn memory(argmem: readwrite, inaccessiblemem: readwrite) uwtable
define internal range(i32 -1366, 1) i32 @copy(ptr noundef writeonly captures(none) %0, ptr noundef writeonly captures(none) %1, ptr noundef readonly captures(none) %2) #1 {
  %4 = tail call i32 @strncmp(ptr noundef nonnull dereferenceable(1) %2, ptr noundef nonnull dereferenceable(5) @.str, i64 noundef 4) #19
  %.not = icmp eq i32 %4, 0
  br i1 %.not, label %5, label %9

5:                                                ; preds = %3
  %6 = tail call noalias ptr @strdup(ptr noundef nonnull %2) #18
  store ptr %6, ptr %0, align 8, !tbaa !8
  %7 = tail call i64 @strlen(ptr noundef nonnull dereferenceable(1) %2) #19
  %8 = add i64 %7, 1
  store i64 %8, ptr %1, align 8, !tbaa !77
  br label %9

9:                                                ; preds = %3, %5
  %.0 = phi i32 [ 0, %5 ], [ -1366, %3 ]
  ret i32 %.0
}